ccopy_reg
_reconstructor
p0
(c__main__
Cache
p1
c__builtin__
object
p2
Ntp3
Rp4
(dp5
S'status'
p6
S'published'
p7
sS'title'
p8
S'Java JDKS'
p9
sS'url'
p10
S'http://www.zenskg.net/wordpress/?p=166'
p11
sS'checksum'
p12
S'24f25954e88b21591d873ba7d97385fa'
p13
sS'created_at'
p14
I1301329620
sS'doctype'
p15
S'article'
p16
sS'updated_at'
p17
I1301358425
sS'post_type'
p18
S'post'
p19
sS'media'
p20
(dp21
sS'id'
p22
I166
sS'categories'
p23
(lp24
S'java'
p25
aS'programming'
p26
asb.