ccopy_reg
_reconstructor
p0
(c__main__
Cache
p1
c__builtin__
object
p2
Ntp3
Rp4
(dp5
S'status'
p6
S'unpublished'
p7
sS'title'
p8
S'Summary of Work Rules'
p9
sS'url'
p10
S'http://www.zenskg.net/wordpress/?p=369'
p11
sS'checksum'
p12
S'300c4130bb6ee74d32ec877338e04e1f'
p13
sS'created_at'
p14
I1465622890
sS'doctype'
p15
S'article'
p16
sS'updated_at'
p17
I1465649152
sS'post_type'
p18
S'post'
p19
sS'media'
p20
(dp21
sS'id'
p22
I369
sS'categories'
p23
(lp24
sb.