ccopy_reg
_reconstructor
p0
(c__main__
Cache
p1
c__builtin__
object
p2
Ntp3
Rp4
(dp5
S'status'
p6
S'published'
p7
sS'title'
p8
S'Testing blogpost'
p9
sS'url'
p10
S'http://www.zenskg.net/wordpress/?p=22'
p11
sS'checksum'
p12
S'583da98970d33fc754f3feea01f747ed'
p13
sS'created_at'
p14
I1289370058
sS'doctype'
p15
S'article'
p16
sS'updated_at'
p17
I1289395658
sS'post_type'
p18
S'post'
p19
sS'media'
p20
(dp21
sS'id'
p22
I22
sS'categories'
p23
(lp24
S'Uncategorized'
p25
asb.