ccopy_reg
_reconstructor
p0
(c__main__
Cache
p1
c__builtin__
object
p2
Ntp3
Rp4
(dp5
S'status'
p6
S'unpublished'
p7
sS'title'
p8
S'How Not to Develop Software'
p9
sS'url'
p10
S'http://www.zenskg.net/wordpress/?p=94'
p11
sS'checksum'
p12
S'9601ff60041ab737a515b71b0c2206a0'
p13
sS'created_at'
p14
I1291767078
sS'doctype'
p15
S'article'
p16
sS'updated_at'
p17
I1291798083
sS'post_type'
p18
S'post'
p19
sS'media'
p20
(dp21
sS'id'
p22
I94
sS'categories'
p23
(lp24
S'Uncategorized'
p25
asb.