ccopy_reg
_reconstructor
p0
(c__main__
Cache
p1
c__builtin__
object
p2
Ntp3
Rp4
(dp5
S'status'
p6
S'published'
p7
sS'title'
p8
S'Code completion in Vim for iOS'
p9
sS'url'
p10
S'http://www.zenskg.net/wordpress/?p=199'
p11
sS'checksum'
p12
S'2e60fb89a063187bd26e85ef76e263b5'
p13
sS'created_at'
p14
I1310262644
sS'doctype'
p15
S'article'
p16
sS'updated_at'
p17
I1437146547
sS'post_type'
p18
S'post'
p19
sS'media'
p20
(dp21
sS'id'
p22
I199
sS'categories'
p23
(lp24
S'Uncategorized'
p25
asb.