ccopy_reg
_reconstructor
p0
(c__main__
Cache
p1
c__builtin__
object
p2
Ntp3
Rp4
(dp5
S'status'
p6
S'published'
p7
sS'title'
p8
S"Karger's Min Cut"
p9
sS'url'
p10
S'http://www.zenskg.net/wordpress/?p=415'
p11
sS'checksum'
p12
S'c3b9cfce94a96f5abbddd7ed9731c7f9'
p13
sS'created_at'
p14
I1470261817
sS'doctype'
p15
S'article'
p16
sS'updated_at'
p17
I1470304738
sS'post_type'
p18
S'post'
p19
sS'media'
p20
(dp21
S'4cycle-1loop.png'
p22
g0
(c__main__
Media
p23
g2
Ntp24
Rp25
(dp26
g10
S'http://www.zenskg.net/wordpress/wp-content/uploads/2016/08/4cycle-1loop-1.png'
p27
sg12
S'cb74523a79107e3fe194203dcc23bc70'
p28
sS'filename'
p29
S'/home/sashan/code/articles/min-cut/4cycle-1loop.png'
p30
sbsS'4cycle-collapsed.png'
p31
g0
(g23
g2
Ntp32
Rp33
(dp34
g10
S'http://www.zenskg.net/wordpress/wp-content/uploads/2016/08/4cycle-collapsed-1.png'
p35
sg12
S'bb546015553ec5c68d10b18fb9403c41'
p36
sg29
S'/home/sashan/code/articles/min-cut/4cycle-collapsed.png'
p37
sbsS'4cycle.png'
p38
g0
(g23
g2
Ntp39
Rp40
(dp41
g10
S'http://www.zenskg.net/wordpress/wp-content/uploads/2016/08/4cycle-1.png'
p42
sg12
S'8a4c6c6096099dcebad62a9bed5f6dbc'
p43
sg29
S'/home/sashan/code/articles/min-cut/4cycle.png'
p44
sbsS'4cycle-collapse-3to1.png'
p45
g0
(g23
g2
Ntp46
Rp47
(dp48
g10
S'http://www.zenskg.net/wordpress/wp-content/uploads/2016/08/4cycle-collapse-3to1-3.png'
p49
sg12
S'c4b9442b4bed8f0f699241ce8d9f1e7a'
p50
sg29
S'/home/sashan/code/articles/min-cut/4cycle-collapse-3to1.png'
p51
sbsS'4cycle-collapsed-2to1.png'
p52
g0
(g23
g2
Ntp53
Rp54
(dp55
g10
S'http://www.zenskg.net/wordpress/wp-content/uploads/2016/08/4cycle-collapsed-2to1.png'
p56
sg12
S'e7a77034b634eb8c30f1218ad48659cd'
p57
sg29
S'/home/sashan/code/articles/min-cut/4cycle-collapsed-2to1.png'
p58
sbssS'id'
p59
I415
sS'categories'
p60
(lp61
S'Uncategorized'
p62
asb.