ccopy_reg
_reconstructor
p0
(c__main__
Cache
p1
c__builtin__
object
p2
Ntp3
Rp4
(dp5
S'status'
p6
S'unpublished'
p7
sS'title'
p8
S'Expert F# Errata'
p9
sS'url'
p10
S'http://www.zenskg.net/wordpress/?p=205'
p11
sS'checksum'
p12
S'd98b7fcfffc5a88becf9f7f8263c616f'
p13
sS'created_at'
p14
I1316372389
sS'doctype'
p15
S'article'
p16
sS'updated_at'
p17
I1316398028
sS'post_type'
p18
S'post'
p19
sS'media'
p20
(dp21
sS'id'
p22
I205
sS'categories'
p23
(lp24
S'programming'
p25
aS'fsharp'
p26
asb.