ccopy_reg
_reconstructor
p0
(c__main__
Cache
p1
c__builtin__
object
p2
Ntp3
Rp4
(dp5
S'status'
p6
S'unpublished'
p7
sS'title'
p8
S'Making the Compiler do the Work'
p9
sS'url'
p10
S'http://www.zenskg.net/wordpress/?p=62'
p11
sS'checksum'
p12
S'507a0dd4e30fd4c7122aa5c96bed9995'
p13
sS'created_at'
p14
I1290391726
sS'doctype'
p15
S'article'
p16
sS'updated_at'
p17
I1290417537
sS'post_type'
p18
S'post'
p19
sS'media'
p20
(dp21
sS'id'
p22
I62
sS'categories'
p23
(lp24
S'c++'
p25
aS'programming'
p26
asb.