ccopy_reg
_reconstructor
p0
(c__main__
Cache
p1
c__builtin__
object
p2
Ntp3
Rp4
(dp5
S'status'
p6
S'published'
p7
sS'title'
p8
S'Did you know Apples contain cyanide?'
p9
sS'url'
p10
S'http://www.zenskg.net/wordpress/?p=452'
p11
sS'checksum'
p12
S'820d715e9022eb506234b59bafcb3173'
p13
sS'created_at'
p14
I1481766788
sS'doctype'
p15
S'article'
p16
sS'updated_at'
p17
I1481875276
sS'post_type'
p18
S'post'
p19
sS'media'
p20
(dp21
S'macbook-2016-price.png'
p22
g0
(c__main__
Media
p23
g2
Ntp24
Rp25
(dp26
g10
S'http://www.zenskg.net/wordpress/wp-content/uploads/2016/12/macbook-2016-price-2.png'
p27
sg12
S'8bc0887d3c655a8a06451ed8126f472e'
p28
sS'filename'
p29
S'/home/sashan/code/articles/did-you-know-apples-contain-cyanide/macbook-2016-price.png'
p30
sbsS'manjaro-metabox.jpg'
p31
g0
(g23
g2
Ntp32
Rp33
(dp34
g10
S'http://www.zenskg.net/wordpress/wp-content/uploads/2016/12/manjaro-metabox.jpg'
p35
sg12
S'2f5cacd7f49cd3af852bb374430873cc'
p36
sg29
S'/home/sashan/code/articles/did-you-know-apples-contain-cyanide/manjaro-metabox.jpg'
p37
sbssS'id'
p38
I452
sS'categories'
p39
(lp40
S'Uncategorized'
p41
asb.