ccopy_reg
_reconstructor
p0
(c__main__
Cache
p1
c__builtin__
object
p2
Ntp3
Rp4
(dp5
S'status'
p6
S'unpublished'
p7
sS'title'
p8
S'Trivial Monad Example in F#'
p9
sS'url'
p10
S'http://www.zenskg.net/wordpress/?p=187'
p11
sS'checksum'
p12
S'c53e5ef1ec0edb6def6994bff8308ee0'
p13
sS'created_at'
p14
I1305428678
sS'doctype'
p15
S'article'
p16
sS'updated_at'
p17
I1305461131
sS'post_type'
p18
S'post'
p19
sS'media'
p20
(dp21
sS'id'
p22
I187
sS'categories'
p23
(lp24
S'programming'
p25
aS'f#'
p26
asb.