ccopy_reg
_reconstructor
p0
(c__main__
Cache
p1
c__builtin__
object
p2
Ntp3
Rp4
(dp5
S'status'
p6
S'published'
p7
sS'title'
p8
S'Trivial Monad Example in F#'
p9
sS'url'
p10
S'http://www.zenskg.net/wordpress/?p=187'
p11
sS'checksum'
p12
S'cc6e795466977ac17a02134fd16989c7'
p13
sS'created_at'
p14
I1305428678
sS'doctype'
p15
S'article'
p16
sS'updated_at'
p17
I1523362613
sS'post_type'
p18
S'post'
p19
sS'media'
p20
(dp21
sS'id'
p22
I187
sS'categories'
p23
(lp24
S'Uncategorized'
p25
asb.