ccopy_reg
_reconstructor
p0
(c__main__
Cache
p1
c__builtin__
object
p2
Ntp3
Rp4
(dp5
S'status'
p6
S'unpublished'
p7
sS'title'
p8
S'C++ Lambda Expressions'
p9
sS'url'
p10
S'http://www.zenskg.net/wordpress/?p=109'
p11
sS'checksum'
p12
S'040de5b9bd654379c74370c17a638c2a'
p13
sS'created_at'
p14
I1292093397
sS'doctype'
p15
S'article'
p16
sS'updated_at'
p17
I1292121897
sS'post_type'
p18
S'post'
p19
sS'media'
p20
(dp21
sS'id'
p22
I109
sS'categories'
p23
(lp24
S'c++'
p25
aS'programming'
p26
asb.