ccopy_reg
_reconstructor
p0
(c__main__
Cache
p1
c__builtin__
object
p2
Ntp3
Rp4
(dp5
S'status'
p6
S'published'
p7
sS'title'
p8
S'Mergesort in Julia'
p9
sS'url'
p10
S'http://www.zenskg.net/wordpress/?p=279'
p11
sS'checksum'
p12
S'cdd77dfdc05c53a6856d8cd775e79e71'
p13
sS'created_at'
p14
I1444000591
sS'doctype'
p15
S'article'
p16
sS'updated_at'
p17
I1444051760
sS'post_type'
p18
S'post'
p19
sS'media'
p20
(dp21
sS'id'
p22
I279
sS'categories'
p23
(lp24
S'Uncategorized'
p25
asb.